; Function Attrs: mustprogress uwtable
define internal fastcc noundef i32 @_ZN3re2L5UnHexEi(i32 noundef %c) unnamed_addr #8 personality ptr @__gxx_personality_v0 {
entry:
  %ref.tmp = alloca %class.LogMessage, align 8
  %0 = add i32 %c, -48
  %or.cond = icmp ult i32 %0, 10
  br i1 %or.cond, label %return, label %if.end

if.end:                                           ; preds = %entry
  %1 = add i32 %c, -65
  %or.cond1 = icmp ult i32 %1, 6
  br i1 %or.cond1, label %if.then5, label %if.end7

if.then5:                                         ; preds = %if.end
  %add = add nsw i32 %c, -55
  br label %return

if.end7:                                          ; preds = %if.end
  %2 = add i32 %c, -97
  %or.cond2 = icmp ult i32 %2, 6
  br i1 %or.cond2, label %if.then11, label %if.end14

if.then11:                                        ; preds = %if.end7
  %add13 = add nsw i32 %c, -87
  br label %return

if.end14:                                         ; preds = %if.end7
  store i8 0, ptr %ref.tmp, align 8
  %str_.i = getelementptr inbounds i8, ptr %ref.tmp, i64 8
  call void @_ZNSt7__cxx1119basic_ostringstreamIcSt11char_traitsIcESaIcEEC1Ev(ptr noundef nonnull align 8 dereferenceable(112) %str_.i)
  %call3.i = invoke noundef nonnull align 8 dereferenceable(8) ptr @_ZStlsISt11char_traitsIcEERSt13basic_ostreamIcT_ES5_PKc(ptr noundef nonnull align 8 dereferenceable(8) %str_.i, ptr noundef nonnull @.str)
          to label %invoke.cont2.i unwind label %lpad.i

invoke.cont2.i:                                   ; preds = %if.end14
  %call5.i = invoke noundef nonnull align 8 dereferenceable(8) ptr @_ZStlsISt11char_traitsIcEERSt13basic_ostreamIcT_ES5_PKc(ptr noundef nonnull align 8 dereferenceable(8) %call3.i, ptr noundef nonnull @.str.7)
          to label %invoke.cont4.i unwind label %lpad.i

invoke.cont4.i:                                   ; preds = %invoke.cont2.i
  %call7.i = invoke noundef nonnull align 8 dereferenceable(8) ptr @_ZNSolsEi(ptr noundef nonnull align 8 dereferenceable(8) %call5.i, i32 noundef 1454)
          to label %invoke.cont6.i unwind label %lpad.i

invoke.cont6.i:                                   ; preds = %invoke.cont4.i
  %call9.i = invoke noundef nonnull align 8 dereferenceable(8) ptr @_ZStlsISt11char_traitsIcEERSt13basic_ostreamIcT_ES5_PKc(ptr noundef nonnull align 8 dereferenceable(8) %call7.i, ptr noundef nonnull @.str.8)
          to label %_ZN10LogMessageC2EPKci.exit unwind label %lpad.i

common.resume:                                    ; preds = %lpad, %lpad.i
  %common.resume.op = phi { ptr, i32 } [ %3, %lpad.i ], [ %4, %lpad ]
  resume { ptr, i32 } %common.resume.op

lpad.i:                                           ; preds = %invoke.cont6.i, %invoke.cont4.i, %invoke.cont2.i, %if.end14
  %3 = landingpad { ptr, i32 }
          cleanup
  call void @_ZNSt7__cxx1119basic_ostringstreamIcSt11char_traitsIcESaIcEED1Ev(ptr noundef nonnull align 8 dereferenceable(112) %str_.i) #25
  br label %common.resume

_ZN10LogMessageC2EPKci.exit:                      ; preds = %invoke.cont6.i
  %call15 = invoke noundef nonnull align 8 dereferenceable(8) ptr @_ZStlsISt11char_traitsIcEERSt13basic_ostreamIcT_ES5_PKc(ptr noundef nonnull align 8 dereferenceable(8) %str_.i, ptr noundef nonnull @.str.14)
          to label %invoke.cont unwind label %lpad

invoke.cont:                                      ; preds = %_ZN10LogMessageC2EPKci.exit
  %call17 = invoke noundef nonnull align 8 dereferenceable(8) ptr @_ZNSolsEi(ptr noundef nonnull align 8 dereferenceable(8) %call15, i32 noundef %c)
          to label %invoke.cont16 unwind label %lpad

invoke.cont16:                                    ; preds = %invoke.cont
  call void @_ZN10LogMessageD2Ev(ptr noundef nonnull align 8 dereferenceable(384) %ref.tmp) #25
  br label %return

lpad:                                             ; preds = %invoke.cont, %_ZN10LogMessageC2EPKci.exit
  %4 = landingpad { ptr, i32 }
          cleanup
  call void @_ZN10LogMessageD2Ev(ptr noundef nonnull align 8 dereferenceable(384) %ref.tmp) #25
  br label %common.resume

return:                                           ; preds = %entry, %invoke.cont16, %if.then11, %if.then5
  %retval.0 = phi i32 [ %add, %if.then5 ], [ %add13, %if.then11 ], [ 0, %invoke.cont16 ], [ %0, %entry ]
  ret i32 %retval.0
}